; ModuleID = '22/698.c'
source_filename = "22/698.c"
target datalayout = "e-m:e-p270:32:32-p271:32:32-p272:64:64-i64:64-f80:128-n8:16:32:64-S128"
target triple = "x86_64-pc-linux-gnu"

@.str = private unnamed_addr constant [3 x i8] c"%d\00", align 1
@.str.1 = private unnamed_addr constant [3 x i8] c"No\00", align 1

; Function Attrs: noinline nounwind uwtable
define dso_local i32 @main() #0 {
  %1 = alloca i32, align 4
  %2 = alloca i32, align 4
  %3 = alloca i32, align 4
  %4 = alloca i32, align 4
  %5 = alloca i8, align 1
  store i32 0, i32* %1, align 4
  store i32 0, i32* %2, align 4
  store i32 0, i32* %3, align 4
  store i8 44, i8* %5, align 1
  br label %6

6:                                                ; preds = %31, %0
  %7 = load i8, i8* %5, align 1
  %8 = sext i8 %7 to i32
  %9 = icmp eq i32 %8, 44
  br i1 %9, label %10, label %34

10:                                               ; preds = %6
  %11 = call i32 (i8*, ...) @__isoc99_scanf(i8* getelementptr inbounds ([3 x i8], [3 x i8]* @.str, i64 0, i64 0), i32* %4)
  %12 = load i32, i32* %4, align 4
  %13 = load i32, i32* %3, align 4
  %14 = icmp sgt i32 %12, %13
  br i1 %14, label %15, label %31

15:                                               ; preds = %10
  %16 = load i32, i32* %4, align 4
  %17 = load i32, i32* %2, align 4
  %18 = icmp sgt i32 %16, %17
  br i1 %18, label %19, label %22

19:                                               ; preds = %15
  %20 = load i32, i32* %2, align 4
  store i32 %20, i32* %3, align 4
  %21 = load i32, i32* %4, align 4
  store i32 %21, i32* %2, align 4
  br label %30

22:                                               ; preds = %15
  %23 = load i32, i32* %2, align 4
  %24 = load i32, i32* %4, align 4
  %25 = icmp eq i32 %23, %24
  br i1 %25, label %26, label %27

26:                                               ; preds = %22
  br label %29

27:                                               ; preds = %22
  %28 = load i32, i32* %4, align 4
  store i32 %28, i32* %3, align 4
  br label %29

29:                                               ; preds = %27, %26
  br label %30

30:                                               ; preds = %29, %19
  br label %31

31:                                               ; preds = %30, %10
  %32 = call i32 @getchar()
  %33 = trunc i32 %32 to i8
  store i8 %33, i8* %5, align 1
  br label %6

34:                                               ; preds = %6
  %35 = load i32, i32* %2, align 4
  %36 = load i32, i32* %3, align 4
  %37 = icmp eq i32 %35, %36
  br i1 %37, label %41, label %38

38:                                               ; preds = %34
  %39 = load i32, i32* %3, align 4
  %40 = icmp eq i32 %39, 0
  br i1 %40, label %41, label %43

41:                                               ; preds = %38, %34
  %42 = call i32 (i8*, ...) @printf(i8* getelementptr inbounds ([3 x i8], [3 x i8]* @.str.1, i64 0, i64 0))
  br label %46

43:                                               ; preds = %38
  %44 = load i32, i32* %3, align 4
  %45 = call i32 (i8*, ...) @printf(i8* getelementptr inbounds ([3 x i8], [3 x i8]* @.str, i64 0, i64 0), i32 %44)
  br label %46

46:                                               ; preds = %43, %41
  ret i32 0
}

declare dso_local i32 @__isoc99_scanf(i8*, ...) #1

declare dso_local i32 @getchar() #1

declare dso_local i32 @printf(i8*, ...) #1


!llvm.module.flags = !{!0}
!llvm.ident = !{!1}

!0 = !{i32 1, !"wchar_size", i32 4}
!1 = !{!"clang version 10.0.0-4ubuntu1 "}
